target datalayout = "e-m:e-p270:32:32-p271:32:32-p272:64:64-i64:64-i128:128-f80:128-n8:16:32:64-S128"
target triple = "x86_64-pc-linux-gnu"

; Function Attrs: mustprogress nounwind uwtable
define linkonce_odr void @_ZN18duckdb_fastpforlib8internal17unpack_single_outILh23ELh23EEENSt9enable_ifIXaageplT_T0_Li32EltplT_T0_Li64EEvE4typeERrPKjPm(ptr noundef nonnull align 8 dereferenceable(8) %0, ptr noalias noundef %1) #0 comdat {
  %3 = alloca ptr, align 8
  %4 = alloca ptr, align 8
  store ptr %0, ptr %3, align 8, !tbaa !38
  store ptr %1, ptr %4, align 8, !tbaa !21
  %5 = load ptr, ptr %3, align 8, !tbaa !38
  %6 = load ptr, ptr %5, align 8, !tbaa !16
  %7 = load i32, ptr %6, align 4, !tbaa !18
  %8 = zext i32 %7 to i64
  %9 = lshr i64 %8, 23
  %10 = load ptr, ptr %4, align 8, !tbaa !21
  store i64 %9, ptr %10, align 8, !tbaa !23
  %11 = load ptr, ptr %3, align 8, !tbaa !38
  %12 = load ptr, ptr %11, align 8, !tbaa !16
  %13 = getelementptr inbounds nuw i32, ptr %12, i32 1
  store ptr %13, ptr %11, align 8, !tbaa !16
  %14 = load ptr, ptr %3, align 8, !tbaa !38
  %15 = load ptr, ptr %14, align 8, !tbaa !16
  %16 = load i32, ptr %15, align 4, !tbaa !18
  %17 = urem i32 %16, 16384
  %18 = zext i32 %17 to i64
  %19 = shl i64 %18, 9
  %20 = load ptr, ptr %4, align 8, !tbaa !21
  %21 = load i64, ptr %20, align 8, !tbaa !23
  %22 = or i64 %21, %19
  store i64 %22, ptr %20, align 8, !tbaa !23
  ret void
}

; Function Attrs: mustprogress uwtable
define linkonce_odr void @_ZN18duckdb_fastpforlib8internal8UnrollerILt23ELt1EE6UnpackERrPKjPm(ptr noundef nonnull align 8 dereferenceable(8) %0, ptr noalias noundef %1) #2 comdat align 2 {
  %3 = alloca ptr, align 8
  %4 = alloca ptr, align 8
  store ptr %0, ptr %3, align 8, !tbaa !38
  store ptr %1, ptr %4, align 8, !tbaa !21
  %5 = load ptr, ptr %3, align 8, !tbaa !38
  %6 = load ptr, ptr %4, align 8, !tbaa !21
  %7 = getelementptr inbounds i64, ptr %6, i64 1
  call void @_ZN18duckdb_fastpforlib8internal17unpack_single_outILh23ELh23EEENSt9enable_ifIXaageplT_T0_Li32EltplT_T0_Li64EEvE4typeERrPKjPm(ptr noundef nonnull align 8 dereferenceable(8) %5, ptr noundef %7)
  %8 = load ptr, ptr %3, align 8, !tbaa !38
  %9 = load ptr, ptr %4, align 8, !tbaa !21
  call void @_ZN18duckdb_fastpforlib8internal8UnrollerILt23ELt2EE6UnpackERrPKjPm(ptr noundef nonnull align 8 dereferenceable(8) %8, ptr noundef %9)
  ret void
}

; Function Attrs: mustprogress nounwind uwtable
define linkonce_odr void @_ZN18duckdb_fastpforlib8internal17unpack_single_outILh23ELh0EEENSt9enable_ifIXltplT_T0_Li32EEvE4typeEPKjPm(ptr noalias noundef %0, ptr noalias noundef %1) #0 comdat {
  %3 = alloca ptr, align 8
  %4 = alloca ptr, align 8
  store ptr %0, ptr %3, align 8, !tbaa !16
  store ptr %1, ptr %4, align 8, !tbaa !21
  %5 = load ptr, ptr %3, align 8, !tbaa !16
  %6 = load i32, ptr %5, align 4, !tbaa !18
  %7 = zext i32 %6 to i64
  %8 = lshr i64 %7, 0
  %9 = urem i64 %8, 8388608
  %10 = load ptr, ptr %4, align 8, !tbaa !21
  store i64 %9, ptr %10, align 8, !tbaa !23
  ret void
}

; Function Attrs: mustprogress uwtable
define linkonce_odr void @_ZN18duckdb_fastpforlib8internal8UnrollerILt23ELt0EE6UnpackERrPKjPm(ptr noundef nonnull align 8 dereferenceable(8) %0, ptr noalias noundef %1) #2 comdat align 2 {
  %3 = alloca ptr, align 8
  %4 = alloca ptr, align 8
  store ptr %0, ptr %3, align 8, !tbaa !38
  store ptr %1, ptr %4, align 8, !tbaa !21
  %5 = load ptr, ptr %3, align 8, !tbaa !38
  %6 = load ptr, ptr %5, align 8, !tbaa !16
  %7 = load ptr, ptr %4, align 8, !tbaa !21
  %8 = getelementptr inbounds i64, ptr %7, i64 0
  call void @_ZN18duckdb_fastpforlib8internal17unpack_single_outILh23ELh0EEENSt9enable_ifIXltplT_T0_Li32EEvE4typeEPKjPm(ptr noundef %6, ptr noundef %8)
  %9 = load ptr, ptr %3, align 8, !tbaa !38
  %10 = load ptr, ptr %4, align 8, !tbaa !21
  call void @_ZN18duckdb_fastpforlib8internal8UnrollerILt23ELt1EE6UnpackERrPKjPm(ptr noundef nonnull align 8 dereferenceable(8) %9, ptr noundef %10)
  ret void
}

; Function Attrs: mustprogress uwtable
define void @_ZN18duckdb_fastpforlib8internal14__fastunpack23EPKjPm(ptr noalias noundef %0, ptr noalias noundef %1) #2 {
  %3 = alloca ptr, align 8
  %4 = alloca ptr, align 8
  store ptr %0, ptr %3, align 8, !tbaa !16
  store ptr %1, ptr %4, align 8, !tbaa !21
  %5 = load ptr, ptr %4, align 8, !tbaa !21
  call void @_ZN18duckdb_fastpforlib8internal8UnrollerILt23ELt0EE6UnpackERrPKjPm(ptr noundef nonnull align 8 dereferenceable(8) %3, ptr noundef %5)
  ret void
}