; Function Attrs: mustprogress uwtable
define void @_ZN18duckdb_fastpforlib8internal14__fastunpack23EPKjPm(ptr noalias noundef %0, ptr noalias noundef initializes((0, 16)) %1) local_unnamed_addr #5 {
  %3 = alloca ptr, align 8
  tail call void @llvm.experimental.noalias.scope.decl(metadata !7329)
  tail call void @llvm.experimental.noalias.scope.decl(metadata !7332)
  tail call void @llvm.experimental.noalias.scope.decl(metadata !7335)
  %4 = load i32, ptr %0, align 4, !tbaa !7, !alias.scope !7332, !noalias !7337
  %5 = and i32 %4, 8388607
  %6 = zext nneg i32 %5 to i64
  store i64 %6, ptr %1, align 8, !tbaa !9, !alias.scope !7337, !noalias !7332
  tail call void @llvm.experimental.noalias.scope.decl(metadata !7338)
  %7 = getelementptr inbounds nuw i8, ptr %1, i64 8
  tail call void @llvm.experimental.noalias.scope.decl(metadata !7341)
  %8 = lshr i32 %4, 23
  %9 = getelementptr inbounds nuw i8, ptr %0, i64 4
  store ptr %9, ptr %3, align 8, !tbaa !1879, !noalias !7344
  %10 = load i32, ptr %9, align 4, !tbaa !7, !noalias !7344
  %11 = shl i32 %10, 9
  %12 = and i32 %11, 8388096
  %13 = or disjoint i32 %12, %8
  %14 = zext nneg i32 %13 to i64
  store i64 %14, ptr %7, align 8, !tbaa !9, !alias.scope !7344
  call void @_ZN18duckdb_fastpforlib8internal8UnrollerILt23ELt2EE6UnpackERrPKjPm(ptr noundef nonnull align 8 dereferenceable(8) %3, ptr noundef nonnull %1)
  ret void
}